target datalayout = "e-m:e-p270:32:32-p271:32:32-p272:64:64-i64:64-i128:128-f80:128-n8:16:32:64-S128"
target triple = "x86_64-pc-linux-gnu"

@.str.3 = private unnamed_addr constant [17 x i8] c"0123456789abcdef\00", align 1
@.str.4 = private unnamed_addr constant [17 x i8] c"0123456789ABCDEF\00", align 1

; Function Attrs: nounwind uwtable
define internal void @trailing_pad(i32 noundef %0, ptr noundef %1) #0 {
  %3 = alloca i32, align 4
  %4 = alloca ptr, align 8
  store i32 %0, ptr %3, align 4
  store ptr %1, ptr %4, align 8
  %5 = load i32, ptr %3, align 4
  %6 = icmp slt i32 %5, 0
  br i1 %6, label %7, label %11

7:                                                ; preds = %2
  %8 = load i32, ptr %3, align 4
  %9 = sub i32 0, %8
  %10 = load ptr, ptr %4, align 8
  call void @dopr_outchmulti(i32 noundef 32, i32 noundef %9, ptr noundef %10)
  br label %11

11:                                               ; preds = %7, %2
  ret void
}

; Function Attrs: nounwind uwtable
define internal i32 @compute_padlen(i32 noundef %0, i32 noundef %1, i32 noundef %2) #0 {
  %4 = alloca i32, align 4
  %5 = alloca i32, align 4
  %6 = alloca i32, align 4
  %7 = alloca i32, align 4
  store i32 %0, ptr %4, align 4
  store i32 %1, ptr %5, align 4
  store i32 %2, ptr %6, align 4
  call void @llvm.lifetime.start.p0(i64 4, ptr %7) #10
  %8 = load i32, ptr %4, align 4
  %9 = load i32, ptr %5, align 4
  %10 = sub i32 %8, %9
  store i32 %10, ptr %7, align 4
  %11 = load i32, ptr %7, align 4
  %12 = icmp slt i32 %11, 0
  br i1 %12, label %13, label %14

13:                                               ; preds = %3
  store i32 0, ptr %7, align 4
  br label %14

14:                                               ; preds = %13, %3
  %15 = load i32, ptr %6, align 4
  %16 = icmp ne i32 %15, 0
  br i1 %16, label %17, label %20

17:                                               ; preds = %14
  %18 = load i32, ptr %7, align 4
  %19 = sub i32 0, %18
  store i32 %19, ptr %7, align 4
  br label %20

20:                                               ; preds = %17, %14
  %21 = load i32, ptr %7, align 4
  call void @llvm.lifetime.end.p0(i64 4, ptr %7) #10
  ret i32 %21
}

; Function Attrs: nounwind uwtable
define internal i32 @adjust_sign(i32 noundef %0, i32 noundef %1, ptr noundef %2) #0 {
  %4 = alloca i32, align 4
  %5 = alloca i32, align 4
  %6 = alloca i32, align 4
  %7 = alloca ptr, align 8
  store i32 %0, ptr %5, align 4
  store i32 %1, ptr %6, align 4
  store ptr %2, ptr %7, align 8
  %8 = load i32, ptr %5, align 4
  %9 = icmp ne i32 %8, 0
  br i1 %9, label %10, label %12

10:                                               ; preds = %3
  %11 = load ptr, ptr %7, align 8
  store i32 45, ptr %11, align 4
  store i32 1, ptr %4, align 4
  br label %19

12:                                               ; preds = %3
  %13 = load i32, ptr %6, align 4
  %14 = icmp ne i32 %13, 0
  br i1 %14, label %15, label %17

15:                                               ; preds = %12
  %16 = load ptr, ptr %7, align 8
  store i32 43, ptr %16, align 4
  br label %17

17:                                               ; preds = %15, %12
  br label %18

18:                                               ; preds = %17
  store i32 0, ptr %4, align 4
  br label %19

19:                                               ; preds = %18, %10
  %20 = load i32, ptr %4, align 4
  ret i32 %20
}

; Function Attrs: nounwind uwtable
define internal void @fmtint(i64 noundef %0, i8 noundef signext %1, i32 noundef %2, i32 noundef %3, i32 noundef %4, i32 noundef %5, i32 noundef %6, i32 noundef %7, ptr noundef %8) #0 {
  %10 = alloca i64, align 8
  %11 = alloca i8, align 1
  %12 = alloca i32, align 4
  %13 = alloca i32, align 4
  %14 = alloca i32, align 4
  %15 = alloca i32, align 4
  %16 = alloca i32, align 4
  %17 = alloca i32, align 4
  %18 = alloca ptr, align 8
  %19 = alloca i64, align 8
  %20 = alloca i32, align 4
  %21 = alloca i32, align 4
  %22 = alloca ptr, align 8
  %23 = alloca i32, align 4
  %24 = alloca [64 x i8], align 16
  %25 = alloca i32, align 4
  %26 = alloca i32, align 4
  %27 = alloca i32, align 4
  %28 = alloca i32, align 4
  store i64 %0, ptr %10, align 8
  store i8 %1, ptr %11, align 1
  store i32 %2, ptr %12, align 4
  store i32 %3, ptr %13, align 4
  store i32 %4, ptr %14, align 4
  store i32 %5, ptr %15, align 4
  store i32 %6, ptr %16, align 4
  store i32 %7, ptr %17, align 4
  store ptr %8, ptr %18, align 8
  call void @llvm.lifetime.start.p0(i64 8, ptr %19) #10
  call void @llvm.lifetime.start.p0(i64 4, ptr %20) #10
  call void @llvm.lifetime.start.p0(i64 4, ptr %21) #10
  call void @llvm.lifetime.start.p0(i64 8, ptr %22) #10
  store ptr @.str.3, ptr %22, align 8
  call void @llvm.lifetime.start.p0(i64 4, ptr %23) #10
  store i32 0, ptr %23, align 4
  call void @llvm.lifetime.start.p0(i64 64, ptr %24) #10
  call void @llvm.lifetime.start.p0(i64 4, ptr %25) #10
  store i32 0, ptr %25, align 4
  call void @llvm.lifetime.start.p0(i64 4, ptr %26) #10
  call void @llvm.lifetime.start.p0(i64 4, ptr %27) #10
  %29 = load i8, ptr %11, align 1
  %30 = sext i8 %29 to i32
  switch i32 %30, label %36 [
    i32 100, label %31
    i32 105, label %31
    i32 111, label %32
    i32 117, label %33
    i32 120, label %34
    i32 88, label %35
  ]

31:                                               ; preds = %9, %9
  store i32 10, ptr %20, align 4
  store i32 1, ptr %21, align 4
  br label %37

32:                                               ; preds = %9
  store i32 8, ptr %20, align 4
  store i32 0, ptr %21, align 4
  br label %37

33:                                               ; preds = %9
  store i32 10, ptr %20, align 4
  store i32 0, ptr %21, align 4
  br label %37

34:                                               ; preds = %9
  store i32 16, ptr %20, align 4
  store i32 0, ptr %21, align 4
  br label %37

35:                                               ; preds = %9
  store ptr @.str.4, ptr %22, align 8
  store i32 16, ptr %20, align 4
  store i32 0, ptr %21, align 4
  br label %37

36:                                               ; preds = %9
  store i32 1, ptr %28, align 4
  br label %161

37:                                               ; preds = %35, %34, %33, %32, %31
  %38 = load i32, ptr %21, align 4
  %39 = icmp ne i32 %38, 0
  br i1 %39, label %40, label %50

40:                                               ; preds = %37
  %41 = load i64, ptr %10, align 8
  %42 = icmp slt i64 %41, 0
  %43 = zext i1 %42 to i32
  %44 = load i32, ptr %12, align 4
  %45 = call i32 @adjust_sign(i32 noundef %43, i32 noundef %44, ptr noundef %23)
  %46 = icmp ne i32 %45, 0
  br i1 %46, label %47, label %50

47:                                               ; preds = %40
  %48 = load i64, ptr %10, align 8
  %49 = sub i64 0, %48
  store i64 %49, ptr %19, align 8
  br label %52

50:                                               ; preds = %40, %37
  %51 = load i64, ptr %10, align 8
  store i64 %51, ptr %19, align 8
  br label %52

52:                                               ; preds = %50, %47
  %53 = load i64, ptr %10, align 8
  %54 = icmp eq i64 %53, 0
  br i1 %54, label %55, label %62

55:                                               ; preds = %52
  %56 = load i32, ptr %17, align 4
  %57 = icmp ne i32 %56, 0
  br i1 %57, label %58, label %62

58:                                               ; preds = %55
  %59 = load i32, ptr %16, align 4
  %60 = icmp eq i32 %59, 0
  br i1 %60, label %61, label %62

61:                                               ; preds = %58
  store i32 0, ptr %25, align 4
  br label %124

62:                                               ; preds = %58, %55, %52
  %63 = load i32, ptr %20, align 4
  %64 = icmp eq i32 %63, 10
  br i1 %64, label %65, label %83

65:                                               ; preds = %62
  br label %66

66:                                               ; preds = %79, %65
  %67 = load ptr, ptr %22, align 8
  %68 = load i64, ptr %19, align 8
  %69 = urem i64 %68, 10
  %70 = getelementptr inbounds nuw i8, ptr %67, i64 %69
  %71 = load i8, ptr %70, align 1
  %72 = load i32, ptr %25, align 4
  %73 = add i32 %72, 1
  store i32 %73, ptr %25, align 4
  %74 = sext i32 %73 to i64
  %75 = sub i64 64, %74
  %76 = getelementptr inbounds nuw [64 x i8], ptr %24, i64 0, i64 %75
  store i8 %71, ptr %76, align 1
  %77 = load i64, ptr %19, align 8
  %78 = udiv i64 %77, 10
  store i64 %78, ptr %19, align 8
  br label %79

79:                                               ; preds = %66
  %80 = load i64, ptr %19, align 8
  %81 = icmp ne i64 %80, 0
  br i1 %81, label %66, label %82, !llvm.loop !10

82:                                               ; preds = %79
  br label %123

83:                                               ; preds = %62
  %84 = load i32, ptr %20, align 4
  %85 = icmp eq i32 %84, 16
  br i1 %85, label %86, label %104

86:                                               ; preds = %83
  br label %87

87:                                               ; preds = %100, %86
  %88 = load ptr, ptr %22, align 8
  %89 = load i64, ptr %19, align 8
  %90 = urem i64 %89, 16
  %91 = getelementptr inbounds nuw i8, ptr %88, i64 %90
  %92 = load i8, ptr %91, align 1
  %93 = load i32, ptr %25, align 4
  %94 = add i32 %93, 1
  store i32 %94, ptr %25, align 4
  %95 = sext i32 %94 to i64
  %96 = sub i64 64, %95
  %97 = getelementptr inbounds nuw [64 x i8], ptr %24, i64 0, i64 %96
  store i8 %92, ptr %97, align 1
  %98 = load i64, ptr %19, align 8
  %99 = udiv i64 %98, 16
  store i64 %99, ptr %19, align 8
  br label %100

100:                                              ; preds = %87
  %101 = load i64, ptr %19, align 8
  %102 = icmp ne i64 %101, 0
  br i1 %102, label %87, label %103, !llvm.loop !11

103:                                              ; preds = %100
  br label %122

104:                                              ; preds = %83
  br label %105

105:                                              ; preds = %118, %104
  %106 = load ptr, ptr %22, align 8
  %107 = load i64, ptr %19, align 8
  %108 = urem i64 %107, 8
  %109 = getelementptr inbounds nuw i8, ptr %106, i64 %108
  %110 = load i8, ptr %109, align 1
  %111 = load i32, ptr %25, align 4
  %112 = add i32 %111, 1
  store i32 %112, ptr %25, align 4
  %113 = sext i32 %112 to i64
  %114 = sub i64 64, %113
  %115 = getelementptr inbounds nuw [64 x i8], ptr %24, i64 0, i64 %114
  store i8 %110, ptr %115, align 1
  %116 = load i64, ptr %19, align 8
  %117 = udiv i64 %116, 8
  store i64 %117, ptr %19, align 8
  br label %118

118:                                              ; preds = %105
  %119 = load i64, ptr %19, align 8
  %120 = icmp ne i64 %119, 0
  br i1 %120, label %105, label %121, !llvm.loop !12

121:                                              ; preds = %118
  br label %122

122:                                              ; preds = %121, %103
  br label %123

123:                                              ; preds = %122, %82
  br label %124

124:                                              ; preds = %123, %61
  %125 = load i32, ptr %16, align 4
  %126 = load i32, ptr %25, align 4
  %127 = sub i32 %125, %126
  %128 = icmp sgt i32 0, %127
  br i1 %128, label %129, label %130

129:                                              ; preds = %124
  br label %134

130:                                              ; preds = %124
  %131 = load i32, ptr %16, align 4
  %132 = load i32, ptr %25, align 4
  %133 = sub i32 %131, %132
  br label %134

134:                                              ; preds = %130, %129
  %135 = phi i32 [ 0, %129 ], [ %133, %130 ]
  store i32 %135, ptr %27, align 4
  %136 = load i32, ptr %14, align 4
  %137 = load i32, ptr %25, align 4
  %138 = load i32, ptr %27, align 4
  %139 = add i32 %137, %138
  %140 = load i32, ptr %13, align 4
  %141 = call i32 @compute_padlen(i32 noundef %136, i32 noundef %139, i32 noundef %140)
  store i32 %141, ptr %26, align 4
  %142 = load i32, ptr %15, align 4
  %143 = load i32, ptr %23, align 4
  %144 = load ptr, ptr %18, align 8
  call void @leading_pad(i32 noundef %142, i32 noundef %143, ptr noundef %26, ptr noundef %144)
  %145 = load i32, ptr %27, align 4
  %146 = icmp sgt i32 %145, 0
  br i1 %146, label %147, label %150

147:                                              ; preds = %134
  %148 = load i32, ptr %27, align 4
  %149 = load ptr, ptr %18, align 8
  call void @dopr_outchmulti(i32 noundef 48, i32 noundef %148, ptr noundef %149)
  br label %150

150:                                              ; preds = %147, %134
  %151 = getelementptr inbounds [64 x i8], ptr %24, i64 0, i64 0
  %152 = getelementptr inbounds nuw i8, ptr %151, i64 64
  %153 = load i32, ptr %25, align 4
  %154 = sext i32 %153 to i64
  %155 = sub i64 0, %154
  %156 = getelementptr inbounds i8, ptr %152, i64 %155
  %157 = load i32, ptr %25, align 4
  %158 = load ptr, ptr %18, align 8
  call void @dostr(ptr noundef %156, i32 noundef %157, ptr noundef %158)
  %159 = load i32, ptr %26, align 4
  %160 = load ptr, ptr %18, align 8
  call void @trailing_pad(i32 noundef %159, ptr noundef %160)
  store i32 0, ptr %28, align 4
  br label %161

161:                                              ; preds = %150, %36
  call void @llvm.lifetime.end.p0(i64 4, ptr %27) #10
  call void @llvm.lifetime.end.p0(i64 4, ptr %26) #10
  call void @llvm.lifetime.end.p0(i64 4, ptr %25) #10
  call void @llvm.lifetime.end.p0(i64 64, ptr %24) #10
  call void @llvm.lifetime.end.p0(i64 4, ptr %23) #10
  call void @llvm.lifetime.end.p0(i64 8, ptr %22) #10
  call void @llvm.lifetime.end.p0(i64 4, ptr %21) #10
  call void @llvm.lifetime.end.p0(i64 4, ptr %20) #10
  call void @llvm.lifetime.end.p0(i64 8, ptr %19) #10
  %162 = load i32, ptr %28, align 4
  switch i32 %162, label %164 [
    i32 0, label %163
    i32 1, label %163
  ]

163:                                              ; preds = %161, %161
  ret void

164:                                              ; preds = %161
  unreachable
}