; Function Attrs: nofree nounwind uwtable
define internal fastcc void @fmtint(i64 noundef %0, i8 noundef signext %1, i32 noundef range(i32 0, 2) %2, i32 noundef %3, i32 noundef %4, i32 noundef range(i32 0, 49) %5, i32 noundef %6, i32 noundef range(i32 0, 2) %7, ptr noundef nonnull captures(none) %8) unnamed_addr #4 {
  %10 = alloca [64 x i8], align 16
  %11 = alloca i32, align 4
  call void @llvm.lifetime.start.p0(i64 64, ptr nonnull %10) #14
  call void @llvm.lifetime.start.p0(i64 4, ptr nonnull %11) #14
  switch i8 %1, label %trailing_pad.exit [
    i8 100, label %15
    i8 105, label %15
    i8 111, label %.thread
    i8 117, label %12
    i8 120, label %13
    i8 88, label %14
  ]

12:                                               ; preds = %9
  br label %.thread

13:                                               ; preds = %9
  br label %.thread

14:                                               ; preds = %9
  br label %.thread

15:                                               ; preds = %9, %9
  %.not.i = icmp sgt i64 %0, -1
  br i1 %.not.i, label %16, label %.thread94

16:                                               ; preds = %15
  %.not4.i = icmp eq i32 %2, 0
  %spec.select = select i1 %.not4.i, i32 0, i32 43
  br label %.thread

.thread94:                                        ; preds = %15
  %17 = sub i64 0, %0
  br label %.preheader.preheader

.thread:                                          ; preds = %16, %9, %12, %13, %14
  %.04964 = phi ptr [ @.str.3, %12 ], [ @.str.3, %13 ], [ @.str.4, %14 ], [ @.str.3, %9 ], [ @.str.3, %16 ]
  %18 = phi i1 [ false, %12 ], [ true, %13 ], [ true, %14 ], [ false, %9 ], [ false, %16 ]
  %19 = phi i1 [ true, %12 ], [ false, %13 ], [ false, %14 ], [ false, %9 ], [ true, %16 ]
  %.059 = phi i32 [ 0, %12 ], [ 0, %13 ], [ 0, %14 ], [ 0, %9 ], [ %spec.select, %16 ]
  %20 = icmp eq i64 %0, 0
  %21 = icmp ne i32 %7, 0
  %or.cond = and i1 %20, %21
  %22 = icmp eq i32 %6, 0
  %or.cond3 = and i1 %22, %or.cond
  br i1 %or.cond3, label %.loopexit, label %23

23:                                               ; preds = %.thread
  br i1 %19, label %.preheader.preheader, label %32

.preheader.preheader:                             ; preds = %.thread94, %23
  %.0496490100 = phi ptr [ @.str.3, %.thread94 ], [ %.04964, %23 ]
  %.0599199 = phi i32 [ 45, %.thread94 ], [ %.059, %23 ]
  %.09398 = phi i64 [ %17, %.thread94 ], [ %0, %23 ]
  br label %.preheader

.preheader:                                       ; preds = %.preheader.preheader, %.preheader
  %.146 = phi i32 [ %27, %.preheader ], [ 0, %.preheader.preheader ]
  %.1 = phi i64 [ %31, %.preheader ], [ %.09398, %.preheader.preheader ]
  %24 = urem i64 %.1, 10
  %25 = getelementptr inbounds nuw i8, ptr %.0496490100, i64 %24
  %26 = load i8, ptr %25, align 1
  %27 = add i32 %.146, 1
  %28 = sext i32 %27 to i64
  %29 = sub nsw i64 64, %28
  %30 = getelementptr inbounds nuw [64 x i8], ptr %10, i64 0, i64 %29
  store i8 %26, ptr %30, align 1
  %31 = udiv i64 %.1, 10
  %.not56 = icmp ult i64 %.1, 10
  br i1 %.not56, label %.loopexit, label %.preheader, !llvm.loop !10

32:                                               ; preds = %23
  br i1 %18, label %.preheader71, label %.preheader73

.preheader71:                                     ; preds = %32, %.preheader71
  %indvars.iv82 = phi i64 [ %indvars.iv.next83, %.preheader71 ], [ 0, %32 ]
  %.2 = phi i64 [ %38, %.preheader71 ], [ %0, %32 ]
  %33 = and i64 %.2, 15
  %34 = getelementptr inbounds nuw i8, ptr %.04964, i64 %33
  %35 = load i8, ptr %34, align 1
  %indvars.iv.next83 = add nuw nsw i64 %indvars.iv82, 1
  %36 = sub nsw i64 63, %indvars.iv82
  %37 = getelementptr inbounds nuw [64 x i8], ptr %10, i64 0, i64 %36
  store i8 %35, ptr %37, align 1
  %38 = lshr i64 %.2, 4
  %.not55 = icmp ult i64 %.2, 16
  br i1 %.not55, label %.loopexit.loopexit77, label %.preheader71, !llvm.loop !11

.preheader73:                                     ; preds = %32, %.preheader73
  %indvars.iv = phi i64 [ %indvars.iv.next, %.preheader73 ], [ 0, %32 ]
  %.3 = phi i64 [ %44, %.preheader73 ], [ %0, %32 ]
  %39 = and i64 %.3, 7
  %40 = getelementptr inbounds nuw i8, ptr %.04964, i64 %39
  %41 = load i8, ptr %40, align 1
  %indvars.iv.next = add nuw nsw i64 %indvars.iv, 1
  %42 = sub nsw i64 63, %indvars.iv
  %43 = getelementptr inbounds nuw [64 x i8], ptr %10, i64 0, i64 %42
  store i8 %41, ptr %43, align 1
  %44 = lshr i64 %.3, 3
  %.not54 = icmp ult i64 %.3, 8
  br i1 %.not54, label %.loopexit.loopexit78, label %.preheader73, !llvm.loop !12

.loopexit.loopexit77:                             ; preds = %.preheader71
  %45 = trunc nuw nsw i64 %indvars.iv.next83 to i32
  br label %.loopexit

.loopexit.loopexit78:                             ; preds = %.preheader73
  %46 = trunc nuw nsw i64 %indvars.iv.next to i32
  br label %.loopexit

.loopexit:                                        ; preds = %.preheader, %.loopexit.loopexit78, %.loopexit.loopexit77, %.thread
  %.05992 = phi i32 [ %.059, %.thread ], [ %.059, %.loopexit.loopexit77 ], [ %.059, %.loopexit.loopexit78 ], [ %.0599199, %.preheader ]
  %.045 = phi i32 [ 0, %.thread ], [ %45, %.loopexit.loopexit77 ], [ %46, %.loopexit.loopexit78 ], [ %27, %.preheader ]
  %47 = sub i32 %6, %.045
  %48 = tail call i32 @llvm.smax.i32(i32 %47, i32 0)
  %49 = add i32 %.045, %48
  %50 = sub i32 %4, %49
  %spec.store.select.i = tail call i32 @llvm.smax.i32(i32 %50, i32 0)
  %.not.i58 = icmp eq i32 %3, 0
  %51 = sub nsw i32 0, %spec.store.select.i
  %spec.select.i = select i1 %.not.i58, i32 %spec.store.select.i, i32 %51
  store i32 %spec.select.i, ptr %11, align 4
  call fastcc void @leading_pad(i32 noundef %5, i32 noundef %.05992, ptr noundef %11, ptr noundef %8)
  %.not57 = icmp slt i32 %47, 1
  br i1 %.not57, label %53, label %52

52:                                               ; preds = %.loopexit
  tail call fastcc void @dopr_outchmulti(i32 noundef 48, i32 noundef %48, ptr noundef %8)
  br label %53

53:                                               ; preds = %52, %.loopexit
  %54 = getelementptr inbounds nuw i8, ptr %10, i64 64
  %55 = sext i32 %.045 to i64
  %56 = sub nsw i64 0, %55
  %57 = getelementptr inbounds i8, ptr %54, i64 %56
  call fastcc void @dostr(ptr noundef nonnull %57, i32 noundef %.045, ptr noundef %8)
  %58 = load i32, ptr %11, align 4
  %59 = icmp slt i32 %58, 0
  br i1 %59, label %60, label %trailing_pad.exit

60:                                               ; preds = %53
  %61 = sub i32 0, %58
  tail call fastcc void @dopr_outchmulti(i32 noundef 32, i32 noundef %61, ptr noundef nonnull %8)
  br label %trailing_pad.exit

trailing_pad.exit:                                ; preds = %60, %53, %9
  call void @llvm.lifetime.end.p0(i64 4, ptr nonnull %11) #14
  call void @llvm.lifetime.end.p0(i64 64, ptr nonnull %10) #14
  ret void
}